; ModuleID = '30/244.c'
source_filename = "30/244.c"
target datalayout = "e-m:e-p270:32:32-p271:32:32-p272:64:64-i64:64-f80:128-n8:16:32:64-S128"
target triple = "x86_64-pc-linux-gnu"

@.str = private unnamed_addr constant [3 x i8] c"%d\00", align 1

; Function Attrs: noinline nounwind uwtable
define dso_local void @main() #0 {
  %1 = alloca i32, align 4
  %2 = alloca i32, align 4
  %3 = alloca i32, align 4
  %4 = alloca i32, align 4
  %5 = alloca i32, align 4
  %6 = alloca i32, align 4
  %7 = alloca i32, align 4
  store i32 0, i32* %5, align 4
  %8 = call i32 (i8*, ...) @__isoc99_scanf(i8* getelementptr inbounds ([3 x i8], [3 x i8]* @.str, i64 0, i64 0), i32* %1)
  store i32 1, i32* %2, align 4
  br label %9

9:                                                ; preds = %36, %0
  %10 = load i32, i32* %2, align 4
  %11 = load i32, i32* %1, align 4
  %12 = icmp sle i32 %10, %11
  br i1 %12, label %13, label %39

13:                                               ; preds = %9
  %14 = load i32, i32* %2, align 4
  %15 = sdiv i32 %14, 10
  store i32 %15, i32* %7, align 4
  %16 = load i32, i32* %2, align 4
  %17 = load i32, i32* %7, align 4
  %18 = mul nsw i32 10, %17
  %19 = sub nsw i32 %16, %18
  store i32 %19, i32* %6, align 4
  %20 = load i32, i32* %2, align 4
  %21 = srem i32 %20, 7
  %22 = icmp ne i32 %21, 0
  br i1 %22, label %23, label %35

23:                                               ; preds = %13
  %24 = load i32, i32* %7, align 4
  %25 = icmp ne i32 %24, 7
  br i1 %25, label %26, label %35

26:                                               ; preds = %23
  %27 = load i32, i32* %6, align 4
  %28 = icmp ne i32 %27, 7
  br i1 %28, label %29, label %35

29:                                               ; preds = %26
  %30 = load i32, i32* %2, align 4
  %31 = load i32, i32* %2, align 4
  %32 = mul nsw i32 %30, %31
  %33 = load i32, i32* %5, align 4
  %34 = add nsw i32 %32, %33
  store i32 %34, i32* %5, align 4
  br label %35

35:                                               ; preds = %29, %26, %23, %13
  br label %36

36:                                               ; preds = %35
  %37 = load i32, i32* %2, align 4
  %38 = add nsw i32 %37, 1
  store i32 %38, i32* %2, align 4
  br label %9

39:                                               ; preds = %9
  %40 = load i32, i32* %5, align 4
  %41 = call i32 (i8*, ...) @printf(i8* getelementptr inbounds ([3 x i8], [3 x i8]* @.str, i64 0, i64 0), i32 %40)
  ret void
}

declare dso_local i32 @__isoc99_scanf(i8*, ...) #1

declare dso_local i32 @printf(i8*, ...) #1


!llvm.module.flags = !{!0}
!llvm.ident = !{!1}

!0 = !{i32 1, !"wchar_size", i32 4}
!1 = !{!"clang version 10.0.0-4ubuntu1 "}
